; Function Attrs: nounwind uwtable
define zeroext i8 @l_Lean_IR_Borrow_ParamMap_beqKey____x40_Lean_Compiler_IR_Borrow___hyg_206_(ptr noundef %0, ptr noundef %1) local_unnamed_addr #1 {
  %3 = ptrtoint ptr %0 to i64
  %4 = and i64 %3, 1
  %.not.i = icmp eq i64 %4, 0
  br i1 %.not.i, label %8, label %5

5:                                                ; preds = %2
  %6 = lshr i64 %3, 1
  %7 = trunc i64 %6 to i32
  br label %lean_obj_tag.exit

8:                                                ; preds = %2
  %9 = getelementptr i8, ptr %0, i64 4
  %.val.i = load i32, ptr %9, align 4
  %10 = lshr i32 %.val.i, 24
  br label %lean_obj_tag.exit

lean_obj_tag.exit:                                ; preds = %5, %8
  %.0.i21 = phi i32 [ %7, %5 ], [ %10, %8 ]
  %11 = icmp eq i32 %.0.i21, 0
  %12 = ptrtoint ptr %1 to i64
  %13 = and i64 %12, 1
  %.not.i22 = icmp eq i64 %13, 0
  br i1 %11, label %14, label %28

14:                                               ; preds = %lean_obj_tag.exit
  br i1 %.not.i22, label %18, label %15

15:                                               ; preds = %14
  %16 = lshr i64 %12, 1
  %17 = trunc i64 %16 to i32
  br label %lean_obj_tag.exit25

18:                                               ; preds = %14
  %19 = getelementptr i8, ptr %1, i64 4
  %.val.i24 = load i32, ptr %19, align 4
  %20 = lshr i32 %.val.i24, 24
  br label %lean_obj_tag.exit25

lean_obj_tag.exit25:                              ; preds = %15, %18
  %.0.i23 = phi i32 [ %17, %15 ], [ %20, %18 ]
  %21 = icmp eq i32 %.0.i23, 0
  br i1 %21, label %22, label %58

22:                                               ; preds = %lean_obj_tag.exit25
  %23 = getelementptr inbounds nuw i8, ptr %0, i64 8
  %24 = load ptr, ptr %23, align 8, !tbaa !9
  %25 = getelementptr inbounds nuw i8, ptr %1, i64 8
  %26 = load ptr, ptr %25, align 8, !tbaa !9
  %27 = tail call zeroext i8 @lean_name_eq(ptr noundef %24, ptr noundef %26) #6
  br label %58

28:                                               ; preds = %lean_obj_tag.exit
  br i1 %.not.i22, label %32, label %29

29:                                               ; preds = %28
  %30 = lshr i64 %12, 1
  %31 = trunc i64 %30 to i32
  br label %lean_obj_tag.exit29

32:                                               ; preds = %28
  %33 = getelementptr i8, ptr %1, i64 4
  %.val.i28 = load i32, ptr %33, align 4
  %34 = lshr i32 %.val.i28, 24
  br label %lean_obj_tag.exit29

lean_obj_tag.exit29:                              ; preds = %29, %32
  %.0.i27 = phi i32 [ %31, %29 ], [ %34, %32 ]
  %35 = icmp eq i32 %.0.i27, 0
  br i1 %35, label %58, label %36

36:                                               ; preds = %lean_obj_tag.exit29
  %37 = getelementptr inbounds nuw i8, ptr %0, i64 8
  %38 = load ptr, ptr %37, align 8, !tbaa !9
  %39 = getelementptr inbounds nuw i8, ptr %0, i64 16
  %40 = load ptr, ptr %39, align 8, !tbaa !9
  %41 = getelementptr inbounds nuw i8, ptr %1, i64 8
  %42 = load ptr, ptr %41, align 8, !tbaa !9
  %43 = getelementptr inbounds nuw i8, ptr %1, i64 16
  %44 = load ptr, ptr %43, align 8, !tbaa !9
  %45 = tail call zeroext i8 @lean_name_eq(ptr noundef %38, ptr noundef %42) #6
  %46 = icmp eq i8 %45, 0
  br i1 %46, label %58, label %47

47:                                               ; preds = %36
  %48 = ptrtoint ptr %40 to i64
  %49 = and i64 %48, 1
  %50 = icmp ne i64 %49, 0
  %51 = ptrtoint ptr %44 to i64
  %52 = and i64 %51, 1
  %53 = icmp ne i64 %52, 0
  %or.cond = select i1 %50, i1 %53, i1 false
  br i1 %or.cond, label %54, label %.critedge.i, !prof !12

54:                                               ; preds = %47
  %55 = icmp eq ptr %40, %44
  br label %lean_nat_eq.exit

.critedge.i:                                      ; preds = %47
  %56 = tail call zeroext i1 @lean_nat_big_eq(ptr noundef %40, ptr noundef %44) #6
  br label %lean_nat_eq.exit

lean_nat_eq.exit:                                 ; preds = %54, %.critedge.i
  %.0.i = phi i1 [ %55, %54 ], [ %56, %.critedge.i ]
  %57 = zext i1 %.0.i to i8
  br label %58

58:                                               ; preds = %lean_nat_eq.exit, %36, %lean_obj_tag.exit29, %lean_obj_tag.exit25, %22
  %.0 = phi i8 [ %27, %22 ], [ 0, %lean_obj_tag.exit25 ], [ 0, %lean_obj_tag.exit29 ], [ %57, %lean_nat_eq.exit ], [ 0, %36 ]
  ret i8 %.0
}